; Function Attrs: mustprogress nofree norecurse nounwind willreturn uwtable
define dso_local void @_ZNK4llvm3pdb10InfoStream21getNamedStreamsBufferEv(ptr dead_on_unwind noalias nocapture writable writeonly sret(%"struct.llvm::BinarySubstreamRef") align 8 %0, ptr nocapture noundef nonnull readonly align 8 dereferenceable(224) %1) local_unnamed_addr #7 align 2 {
  %3 = getelementptr inbounds nuw i8, ptr %1, i64 16
  %4 = load i64, ptr %3, align 8
  store i64 %4, ptr %0, align 8
  %5 = getelementptr inbounds nuw i8, ptr %0, i64 8
  %6 = getelementptr inbounds i8, ptr %1, i64 24
  %7 = load ptr, ptr %6, align 8
  store ptr %7, ptr %5, align 8
  %8 = getelementptr inbounds i8, ptr %0, i64 16
  %9 = getelementptr inbounds i8, ptr %1, i64 32
  %10 = load ptr, ptr %9, align 8
  store ptr %10, ptr %8, align 8
  %.not.i.i.i.i.i.i = icmp eq ptr %10, null
  br i1 %.not.i.i.i.i.i.i, label %_ZN4llvm18BinarySubstreamRefC2ERKS0_.exit, label %11

11:                                               ; preds = %2
  %12 = getelementptr inbounds nuw i8, ptr %10, i64 8
  %13 = load i8, ptr @__libc_single_threaded, align 1
  %.not.i.i.i.i.i.i.i = icmp eq i8 %13, 0
  br i1 %.not.i.i.i.i.i.i.i, label %17, label %14

14:                                               ; preds = %11
  %15 = load i32, ptr %12, align 4
  %16 = add nsw i32 %15, 1
  store i32 %16, ptr %12, align 4
  br label %_ZN4llvm18BinarySubstreamRefC2ERKS0_.exit

17:                                               ; preds = %11
  %18 = atomicrmw volatile add ptr %12, i32 1 acq_rel, align 4
  br label %_ZN4llvm18BinarySubstreamRefC2ERKS0_.exit

_ZN4llvm18BinarySubstreamRefC2ERKS0_.exit:        ; preds = %2, %14, %17
  %19 = getelementptr inbounds i8, ptr %0, i64 24
  %20 = getelementptr inbounds i8, ptr %1, i64 40
  tail call void @llvm.memcpy.p0.p0.i64(ptr noundef nonnull align 8 dereferenceable(32) %19, ptr noundef nonnull align 8 dereferenceable(32) %20, i64 32, i1 false)
  ret void
}